target datalayout = "e-m:e-p270:32:32-p271:32:32-p272:64:64-i64:64-i128:128-f80:128-n8:16:32:64-S128"
target triple = "x86_64-pc-linux-gnu"

%struct.linger = type { i32, i32 }

@.str.3 = private unnamed_addr constant [25 x i8] c"java/net/SocketException\00", align 1
@.str.11 = private unnamed_addr constant [28 x i8] c"sun.nio.ch.Net.setIntOption\00", align 1

; Function Attrs: nounwind uwtable
define void @Java_sun_nio_ch_Net_setIntOption0(ptr noundef %0, ptr noundef %1, ptr noundef %2, i8 noundef zeroext %3, i32 noundef %4, i32 noundef %5, i32 noundef %6, i8 noundef zeroext %7) #0 {
  %9 = alloca ptr, align 8
  %10 = alloca ptr, align 8
  %11 = alloca ptr, align 8
  %12 = alloca i8, align 1
  %13 = alloca i32, align 4
  %14 = alloca i32, align 4
  %15 = alloca i32, align 4
  %16 = alloca i8, align 1
  %17 = alloca %struct.linger, align 4
  %18 = alloca i8, align 1
  %19 = alloca ptr, align 8
  %20 = alloca i32, align 4
  %21 = alloca i32, align 4
  store ptr %0, ptr %9, align 8
  store ptr %1, ptr %10, align 8
  store ptr %2, ptr %11, align 8
  store i8 %3, ptr %12, align 1
  store i32 %4, ptr %13, align 4
  store i32 %5, ptr %14, align 4
  store i32 %6, ptr %15, align 4
  store i8 %7, ptr %16, align 1
  store ptr %15, ptr %19, align 8
  store i32 4, ptr %20, align 4
  %22 = load i32, ptr %13, align 4
  %23 = icmp eq i32 %22, 0
  br i1 %23, label %24, label %33

24:                                               ; preds = %8
  %25 = load i32, ptr %14, align 4
  %26 = icmp eq i32 %25, 33
  br i1 %26, label %30, label %27

27:                                               ; preds = %24
  %28 = load i32, ptr %14, align 4
  %29 = icmp eq i32 %28, 34
  br i1 %29, label %30, label %33

30:                                               ; preds = %27, %24
  store ptr %18, ptr %19, align 8
  store i32 1, ptr %20, align 4
  %31 = load i32, ptr %15, align 4
  %32 = trunc i32 %31 to i8
  store i8 %32, ptr %18, align 1
  br label %33

33:                                               ; preds = %30, %27, %8
  %34 = load i32, ptr %13, align 4
  %35 = icmp eq i32 %34, 1
  br i1 %35, label %36, label %50

36:                                               ; preds = %33
  %37 = load i32, ptr %14, align 4
  %38 = icmp eq i32 %37, 13
  br i1 %38, label %39, label %50

39:                                               ; preds = %36
  store ptr %17, ptr %19, align 8
  store i32 8, ptr %20, align 4
  %40 = load i32, ptr %15, align 4
  %41 = icmp sge i32 %40, 0
  br i1 %41, label %42, label %46

42:                                               ; preds = %39
  %43 = getelementptr inbounds %struct.linger, ptr %17, i32 0, i32 0
  store i32 1, ptr %43, align 4
  %44 = load i32, ptr %15, align 4
  %45 = getelementptr inbounds %struct.linger, ptr %17, i32 0, i32 1
  store i32 %44, ptr %45, align 4
  br label %49

46:                                               ; preds = %39
  %47 = getelementptr inbounds %struct.linger, ptr %17, i32 0, i32 0
  store i32 0, ptr %47, align 4
  %48 = getelementptr inbounds %struct.linger, ptr %17, i32 0, i32 1
  store i32 0, ptr %48, align 4
  br label %49

49:                                               ; preds = %46, %42
  br label %50

50:                                               ; preds = %49, %36, %33
  %51 = load i8, ptr %12, align 1
  %52 = icmp ne i8 %51, 0
  br i1 %52, label %53, label %62

53:                                               ; preds = %50
  %54 = load ptr, ptr %9, align 8
  %55 = load ptr, ptr %11, align 8
  %56 = call i32 @fdval(ptr noundef %54, ptr noundef %55)
  %57 = load i32, ptr %13, align 4
  %58 = load i32, ptr %14, align 4
  %59 = load ptr, ptr %19, align 8
  %60 = load i32, ptr %20, align 4
  %61 = call i32 @NET_SetSockOpt(i32 noundef %56, i32 noundef %57, i32 noundef %58, ptr noundef %59, i32 noundef %60)
  store i32 %61, ptr %21, align 4
  br label %71

62:                                               ; preds = %50
  %63 = load ptr, ptr %9, align 8
  %64 = load ptr, ptr %11, align 8
  %65 = call i32 @fdval(ptr noundef %63, ptr noundef %64)
  %66 = load i32, ptr %13, align 4
  %67 = load i32, ptr %14, align 4
  %68 = load ptr, ptr %19, align 8
  %69 = load i32, ptr %20, align 4
  %70 = call i32 @setsockopt(i32 noundef %65, i32 noundef %66, i32 noundef %67, ptr noundef %68, i32 noundef %69) #5
  store i32 %70, ptr %21, align 4
  br label %71

71:                                               ; preds = %62, %53
  %72 = load i32, ptr %21, align 4
  %73 = icmp slt i32 %72, 0
  br i1 %73, label %74, label %76

74:                                               ; preds = %71
  %75 = load ptr, ptr %9, align 8
  call void @JNU_ThrowByNameWithLastError(ptr noundef %75, ptr noundef @.str.3, ptr noundef @.str.11)
  br label %76

76:                                               ; preds = %74, %71
  ret void
}