; Function Attrs: nounwind uwtable
define void @Java_sun_nio_ch_Net_setIntOption0(ptr noundef %0, ptr nocapture noundef readnone %1, ptr noundef %2, i8 noundef zeroext %3, i32 noundef %4, i32 noundef %5, i32 noundef %6, i8 noundef zeroext %7) local_unnamed_addr #0 {
  %9 = alloca i32, align 4
  %10 = alloca %struct.linger, align 4
  %11 = alloca i8, align 1
  store i32 %6, ptr %9, align 4
  %12 = icmp eq i32 %4, 0
  %13 = add i32 %5, -33
  %or.cond = icmp ult i32 %13, 2
  %or.cond25 = and i1 %12, %or.cond
  br i1 %or.cond25, label %.thread, label %15

.thread:                                          ; preds = %8
  %14 = trunc i32 %6 to i8
  store i8 %14, ptr %11, align 1
  br label %23

15:                                               ; preds = %8
  %16 = icmp eq i32 %4, 1
  %17 = icmp eq i32 %5, 13
  %or.cond3 = and i1 %16, %17
  br i1 %or.cond3, label %18, label %23

18:                                               ; preds = %15
  %19 = icmp sgt i32 %6, -1
  %20 = getelementptr inbounds i8, ptr %10, i64 4
  br i1 %19, label %21, label %22

21:                                               ; preds = %18
  store i32 1, ptr %10, align 4
  store i32 %6, ptr %20, align 4
  br label %23

22:                                               ; preds = %18
  store i32 0, ptr %10, align 4
  store i32 0, ptr %20, align 4
  br label %23

23:                                               ; preds = %.thread, %21, %22, %15
  %.124 = phi ptr [ %10, %21 ], [ %10, %22 ], [ %9, %15 ], [ %11, %.thread ]
  %.1 = phi i32 [ 8, %21 ], [ 8, %22 ], [ 4, %15 ], [ 1, %.thread ]
  %.not = icmp eq i8 %3, 0
  %24 = tail call i32 @fdval(ptr noundef %0, ptr noundef %2) #7
  br i1 %.not, label %27, label %25

25:                                               ; preds = %23
  %26 = call i32 @NET_SetSockOpt(i32 noundef %24, i32 noundef %4, i32 noundef %5, ptr noundef nonnull %.124, i32 noundef %.1) #7
  br label %29

27:                                               ; preds = %23
  %28 = call i32 @setsockopt(i32 noundef %24, i32 noundef %4, i32 noundef %5, ptr noundef nonnull %.124, i32 noundef %.1) #7
  br label %29

29:                                               ; preds = %27, %25
  %.0 = phi i32 [ %26, %25 ], [ %28, %27 ]
  %30 = icmp slt i32 %.0, 0
  br i1 %30, label %31, label %32

31:                                               ; preds = %29
  call void @JNU_ThrowByNameWithLastError(ptr noundef %0, ptr noundef nonnull @.str.3, ptr noundef nonnull @.str.11) #7
  br label %32

32:                                               ; preds = %31, %29
  ret void
}